; Function Attrs: nounwind uwtable
define hidden range(i32 0, 2) i32 @mz_zip_reader_extract_to_file(ptr noundef %pZip, i32 noundef %file_index, ptr noundef readonly captures(none) %pDst_filename, i32 noundef %flags) local_unnamed_addr #4 {
entry:
  %t.i = alloca %struct.utimbuf, align 8
  %file_stat = alloca %struct.mz_zip_archive_file_stat, align 8
  %call = call i32 @mz_zip_reader_file_stat(ptr noundef %pZip, i32 noundef %file_index, ptr noundef nonnull %file_stat)
  %tobool.not = icmp eq i32 %call, 0
  br i1 %tobool.not, label %return, label %if.end

if.end:                                           ; preds = %entry
  %call1 = call noalias ptr @fopen(ptr noundef %pDst_filename, ptr noundef nonnull @.str.16)
  %tobool2.not = icmp eq ptr %call1, null
  br i1 %tobool2.not, label %return, label %if.end4

if.end4:                                          ; preds = %if.end
  %call5 = call i32 @mz_zip_reader_extract_to_callback(ptr noundef %pZip, i32 noundef %file_index, ptr noundef nonnull @mz_zip_file_write_callback, ptr noundef nonnull %call1, i32 noundef %flags)
  %call6 = call i32 @fclose(ptr noundef nonnull %call1)
  %cmp = icmp eq i32 %call6, -1
  %tobool9.not = icmp eq i32 %call5, 0
  %or.cond = select i1 %cmp, i1 true, i1 %tobool9.not
  br i1 %or.cond, label %return, label %if.then10

if.then10:                                        ; preds = %if.end4
  %m_time = getelementptr inbounds nuw i8, ptr %file_stat, i64 16
  %0 = load i64, ptr %m_time, align 8
  call void @llvm.lifetime.start.p0(i64 16, ptr nonnull %t.i)
  store i64 %0, ptr %t.i, align 8
  %modtime.i = getelementptr inbounds nuw i8, ptr %t.i, i64 8
  store i64 %0, ptr %modtime.i, align 8
  %call.i = call i32 @utime(ptr noundef readonly %pDst_filename, ptr noundef nonnull %t.i) #30
  call void @llvm.lifetime.end.p0(i64 16, ptr nonnull %t.i)
  br label %return

return:                                           ; preds = %if.then10, %if.end4, %if.end, %entry
  %retval.0 = phi i32 [ 0, %entry ], [ 0, %if.end ], [ 0, %if.end4 ], [ 1, %if.then10 ]
  ret i32 %retval.0
}